; ModuleID = 'bench/lvgl/original/lv_button.ll'
source_filename = "bench/lvgl/original/lv_button.ll"
target datalayout = "e-m:e-p270:32:32-p271:32:32-p272:64:64-i64:64-i128:128-f80:128-n8:16:32:64-S128"
target triple = "x86_64-pc-linux-gnu"

%struct._lv_obj_class_t = type { ptr, ptr, ptr, ptr, ptr, ptr, i32, i32, i32 }

@lv_obj_class = external constant %struct._lv_obj_class_t, align 8
@.str = private unnamed_addr constant [4 x i8] c"btn\00", align 1
@lv_button_class = constant { ptr, ptr, ptr, ptr, ptr, ptr, i32, i32, i8, i8, i8, [5 x i8] } { ptr @lv_obj_class, ptr @lv_button_constructor, ptr null, ptr null, ptr null, ptr @.str, i32 1073741823, i32 1073741823, i8 4, i8 4, i8 0, [5 x i8] zeroinitializer }, align 8

; Function Attrs: nounwind uwtable
define internal void @lv_button_constructor(ptr nocapture readnone %0, ptr noundef %1) #0 {
  tail call void @lv_obj_remove_flag(ptr noundef %1, i32 noundef 16) #2
  tail call void @lv_obj_add_flag(ptr noundef %1, i32 noundef 1024) #2
  ret void
}

; Function Attrs: nounwind uwtable
define noundef ptr @lv_button_create(ptr noundef %0) local_unnamed_addr #0 {
  %2 = tail call ptr @lv_obj_class_create_obj(ptr noundef nonnull @lv_button_class, ptr noundef %0) #2
  tail call void @lv_obj_class_init_obj(ptr noundef %2) #2
  ret ptr %2
}

declare ptr @lv_obj_class_create_obj(ptr noundef, ptr noundef) local_unnamed_addr #1

declare void @lv_obj_class_init_obj(ptr noundef) local_unnamed_addr #1

declare void @lv_obj_remove_flag(ptr noundef, i32 noundef) local_unnamed_addr #1

declare void @lv_obj_add_flag(ptr noundef, i32 noundef) local_unnamed_addr #1


!llvm.module.flags = !{!0, !1, !2}

!0 = !{i32 1, !"wchar_size", i32 4}
!1 = !{i32 8, !"PIC Level", i32 2}
!2 = !{i32 7, !"uwtable", i32 2}
